target datalayout = "e-m:e-p270:32:32-p271:32:32-p272:64:64-i64:64-i128:128-f80:128-n8:16:32:64-S128"
target triple = "x86_64-pc-linux-gnu"

%"struct.arrow::ArraySpan" = type { ptr, i64, i64, i64, [3 x %"struct.arrow::BufferSpan"], %"class.std::vector" }
%"struct.arrow::BufferSpan" = type { ptr, i64, ptr }
%"class.std::vector" = type { %"struct.std::_Vector_base" }
%"struct.std::_Vector_base" = type { %"struct.std::_Vector_base<arrow::ArraySpan, std::allocator<arrow::ArraySpan>>::_Vector_impl" }
%"struct.std::_Vector_base<arrow::ArraySpan, std::allocator<arrow::ArraySpan>>::_Vector_impl" = type { %"struct.std::_Vector_base<arrow::ArraySpan, std::allocator<arrow::ArraySpan>>::_Vector_impl_data" }
%"struct.std::_Vector_base<arrow::ArraySpan, std::allocator<arrow::ArraySpan>>::_Vector_impl_data" = type { ptr, ptr, ptr }

; Function Attrs: mustprogress uwtable
define noundef i64 @_ZN5arrow7compute8internal12GetTrueCountERKNS_9ArraySpanE(ptr noundef nonnull align 8 dereferenceable(128) %0) #1 {
  %2 = alloca i64, align 8
  %3 = alloca ptr, align 8
  store ptr %0, ptr %3, align 8, !tbaa !78
  %4 = load ptr, ptr %3, align 8, !tbaa !78
  %5 = getelementptr inbounds nuw %"struct.arrow::ArraySpan", ptr %4, i32 0, i32 4
  %6 = getelementptr inbounds [3 x %"struct.arrow::BufferSpan"], ptr %5, i64 0, i64 0
  %7 = getelementptr inbounds nuw %"struct.arrow::BufferSpan", ptr %6, i32 0, i32 0
  %8 = load ptr, ptr %7, align 8, !tbaa !79
  %9 = icmp ne ptr %8, null
  br i1 %9, label %10, label %31

10:                                               ; preds = %1
  %11 = load ptr, ptr %3, align 8, !tbaa !78
  %12 = getelementptr inbounds nuw %"struct.arrow::ArraySpan", ptr %11, i32 0, i32 4
  %13 = getelementptr inbounds [3 x %"struct.arrow::BufferSpan"], ptr %12, i64 0, i64 0
  %14 = getelementptr inbounds nuw %"struct.arrow::BufferSpan", ptr %13, i32 0, i32 0
  %15 = load ptr, ptr %14, align 8, !tbaa !79
  %16 = load ptr, ptr %3, align 8, !tbaa !78
  %17 = getelementptr inbounds nuw %"struct.arrow::ArraySpan", ptr %16, i32 0, i32 3
  %18 = load i64, ptr %17, align 8, !tbaa !83
  %19 = load ptr, ptr %3, align 8, !tbaa !78
  %20 = getelementptr inbounds nuw %"struct.arrow::ArraySpan", ptr %19, i32 0, i32 4
  %21 = getelementptr inbounds [3 x %"struct.arrow::BufferSpan"], ptr %20, i64 0, i64 1
  %22 = getelementptr inbounds nuw %"struct.arrow::BufferSpan", ptr %21, i32 0, i32 0
  %23 = load ptr, ptr %22, align 8, !tbaa !79
  %24 = load ptr, ptr %3, align 8, !tbaa !78
  %25 = getelementptr inbounds nuw %"struct.arrow::ArraySpan", ptr %24, i32 0, i32 3
  %26 = load i64, ptr %25, align 8, !tbaa !83
  %27 = load ptr, ptr %3, align 8, !tbaa !78
  %28 = getelementptr inbounds nuw %"struct.arrow::ArraySpan", ptr %27, i32 0, i32 1
  %29 = load i64, ptr %28, align 8, !tbaa !84
  %30 = call noundef i64 @_ZN5arrow8internal15CountAndSetBitsEPKhlS2_ll(ptr noundef %15, i64 noundef %18, ptr noundef %23, i64 noundef %26, i64 noundef %29)
  store i64 %30, ptr %2, align 8
  br label %44

31:                                               ; preds = %1
  %32 = load ptr, ptr %3, align 8, !tbaa !78
  %33 = getelementptr inbounds nuw %"struct.arrow::ArraySpan", ptr %32, i32 0, i32 4
  %34 = getelementptr inbounds [3 x %"struct.arrow::BufferSpan"], ptr %33, i64 0, i64 1
  %35 = getelementptr inbounds nuw %"struct.arrow::BufferSpan", ptr %34, i32 0, i32 0
  %36 = load ptr, ptr %35, align 8, !tbaa !79
  %37 = load ptr, ptr %3, align 8, !tbaa !78
  %38 = getelementptr inbounds nuw %"struct.arrow::ArraySpan", ptr %37, i32 0, i32 3
  %39 = load i64, ptr %38, align 8, !tbaa !83
  %40 = load ptr, ptr %3, align 8, !tbaa !78
  %41 = getelementptr inbounds nuw %"struct.arrow::ArraySpan", ptr %40, i32 0, i32 1
  %42 = load i64, ptr %41, align 8, !tbaa !84
  %43 = call noundef i64 @_ZN5arrow8internal12CountSetBitsEPKhll(ptr noundef %36, i64 noundef %39, i64 noundef %42)
  store i64 %43, ptr %2, align 8
  br label %44

44:                                               ; preds = %31, %10
  %45 = load i64, ptr %2, align 8
  ret i64 %45
}