; Function Attrs: mustprogress uwtable
define noundef i64 @_ZN5arrow7compute8internal12GetTrueCountERKNS_9ArraySpanE(ptr noundef nonnull readonly align 8 captures(none) dereferenceable(128) %0) local_unnamed_addr #1 {
  %2 = getelementptr inbounds nuw i8, ptr %0, i64 32
  %3 = load ptr, ptr %2, align 8, !tbaa !62
  %.not = icmp eq ptr %3, null
  %4 = getelementptr inbounds nuw i8, ptr %0, i64 8
  %5 = load i64, ptr %4, align 8, !tbaa !65
  br i1 %.not, label %12, label %6

6:                                                ; preds = %1
  %7 = getelementptr inbounds nuw i8, ptr %0, i64 24
  %8 = load i64, ptr %7, align 8, !tbaa !66
  %9 = getelementptr inbounds nuw i8, ptr %0, i64 56
  %10 = load ptr, ptr %9, align 8, !tbaa !62
  %11 = tail call noundef i64 @_ZN5arrow8internal15CountAndSetBitsEPKhlS2_ll(ptr noundef nonnull %3, i64 noundef %8, ptr noundef %10, i64 noundef %8, i64 noundef %5)
  br label %18

12:                                               ; preds = %1
  %13 = getelementptr inbounds nuw i8, ptr %0, i64 56
  %14 = load ptr, ptr %13, align 8, !tbaa !62
  %15 = getelementptr inbounds nuw i8, ptr %0, i64 24
  %16 = load i64, ptr %15, align 8, !tbaa !66
  %17 = tail call noundef i64 @_ZN5arrow8internal12CountSetBitsEPKhll(ptr noundef %14, i64 noundef %16, i64 noundef %5)
  br label %18

18:                                               ; preds = %12, %6
  %.0 = phi i64 [ %11, %6 ], [ %17, %12 ]
  ret i64 %.0
}